target datalayout = "e-m:e-p270:32:32-p271:32:32-p272:64:64-i64:64-i128:128-f80:128-n8:16:32:64-S128"
target triple = "x86_64-pc-linux-gnu"

%class.VM_GC_Sync_Operation = type { %class.VM_Operation }
%class.VM_Operation = type { ptr, ptr }
%class.VM_GC_Operation.base = type <{ %class.VM_GC_Sync_Operation, i32, i32, i8, i8, [2 x i8], i32, i8 }>
%class.VM_G1TryInitiateConcMark = type { %class.VM_GC_Operation.base, i8, i8, i8, i8, i8, [2 x i8] }

; Function Attrs: mustprogress nounwind uwtable
define hidden noundef zeroext i1 @_ZN24VM_G1TryInitiateConcMark13doit_prologueEv(ptr noundef nonnull align 8 dereferenceable(38) %0) unnamed_addr #1 align 2 {
  %2 = alloca ptr, align 8
  %3 = alloca i8, align 1
  store ptr %0, ptr %2, align 8
  %4 = load ptr, ptr %2, align 8
  %5 = call noundef zeroext i1 @_ZN15VM_GC_Operation13doit_prologueEv(ptr noundef nonnull align 8 dereferenceable(33) %4)
  %6 = zext i1 %5 to i8
  store i8 %6, ptr %3, align 1
  %7 = load i8, ptr %3, align 1
  %8 = trunc i8 %7 to i1
  br i1 %8, label %11, label %9

9:                                                ; preds = %1
  %10 = getelementptr inbounds %class.VM_G1TryInitiateConcMark, ptr %4, i32 0, i32 1
  store i8 1, ptr %10, align 1
  br label %11

11:                                               ; preds = %9, %1
  %12 = load i8, ptr %3, align 1
  %13 = trunc i8 %12 to i1
  ret i1 %13
}