; Function Attrs: mustprogress nounwind uwtable
define hidden noundef zeroext i1 @_ZN24VM_G1TryInitiateConcMark13doit_prologueEv(ptr noundef nonnull align 8 dereferenceable(38) %0) unnamed_addr #0 align 2 {
  %2 = tail call noundef zeroext i1 @_ZN15VM_GC_Operation13doit_prologueEv(ptr noundef nonnull align 8 dereferenceable(33) %0) #10
  br i1 %2, label %5, label %3

3:                                                ; preds = %1
  %4 = getelementptr inbounds i8, ptr %0, i64 33
  store i8 1, ptr %4, align 1
  br label %5

5:                                                ; preds = %3, %1
  ret i1 %2
}